; ModuleID = '32/622.c'
source_filename = "32/622.c"
target datalayout = "e-m:e-p270:32:32-p271:32:32-p272:64:64-i64:64-f80:128-n8:16:32:64-S128"
target triple = "x86_64-pc-linux-gnu"

@.str = private unnamed_addr constant [3 x i8] c"%d\00", align 1
@.str.1 = private unnamed_addr constant [5 x i8] c"%s%s\00", align 1
@.str.2 = private unnamed_addr constant [4 x i8] c"%s\0A\00", align 1

; Function Attrs: noinline nounwind uwtable
define dso_local void @main() #0 {
  %1 = alloca i32, align 4
  %2 = alloca i32, align 4
  %3 = alloca i32, align 4
  %4 = alloca i32, align 4
  %5 = alloca i32, align 4
  %6 = alloca i32, align 4
  %7 = alloca i32, align 4
  %8 = alloca i32, align 4
  %9 = alloca [101 x i8], align 16
  %10 = alloca [101 x i8], align 16
  %11 = alloca [101 x [101 x i8]], align 16
  %12 = call i32 (i8*, ...) @__isoc99_scanf(i8* getelementptr inbounds ([3 x i8], [3 x i8]* @.str, i64 0, i64 0), i32* %5)
  store i32 0, i32* %2, align 4
  br label %13

13:                                               ; preds = %176, %0
  %14 = load i32, i32* %2, align 4
  %15 = load i32, i32* %5, align 4
  %16 = icmp slt i32 %14, %15
  br i1 %16, label %17, label %179

17:                                               ; preds = %13
  %18 = getelementptr inbounds [101 x i8], [101 x i8]* %9, i64 0, i64 0
  %19 = getelementptr inbounds [101 x i8], [101 x i8]* %10, i64 0, i64 0
  %20 = call i32 (i8*, ...) @__isoc99_scanf(i8* getelementptr inbounds ([5 x i8], [5 x i8]* @.str.1, i64 0, i64 0), i8* %18, i8* %19)
  %21 = getelementptr inbounds [101 x i8], [101 x i8]* %9, i64 0, i64 0
  %22 = call i64 @strlen(i8* %21) #3
  %23 = trunc i64 %22 to i32
  store i32 %23, i32* %3, align 4
  %24 = load i32, i32* %3, align 4
  store i32 %24, i32* %7, align 4
  %25 = getelementptr inbounds [101 x i8], [101 x i8]* %10, i64 0, i64 0
  %26 = call i64 @strlen(i8* %25) #3
  %27 = trunc i64 %26 to i32
  store i32 %27, i32* %4, align 4
  br label %28

28:                                               ; preds = %118, %17
  %29 = load i32, i32* %4, align 4
  %30 = icmp sgt i32 %29, 0
  br i1 %30, label %31, label %121

31:                                               ; preds = %28
  %32 = load i32, i32* %3, align 4
  %33 = sub nsw i32 %32, 1
  %34 = sext i32 %33 to i64
  %35 = getelementptr inbounds [101 x i8], [101 x i8]* %9, i64 0, i64 %34
  %36 = load i8, i8* %35, align 1
  %37 = sext i8 %36 to i32
  %38 = load i32, i32* %4, align 4
  %39 = sub nsw i32 %38, 1
  %40 = sext i32 %39 to i64
  %41 = getelementptr inbounds [101 x i8], [101 x i8]* %10, i64 0, i64 %40
  %42 = load i8, i8* %41, align 1
  %43 = sext i8 %42 to i32
  %44 = icmp sge i32 %37, %43
  br i1 %44, label %45, label %66

45:                                               ; preds = %31
  %46 = load i32, i32* %3, align 4
  %47 = sub nsw i32 %46, 1
  %48 = sext i32 %47 to i64
  %49 = getelementptr inbounds [101 x i8], [101 x i8]* %9, i64 0, i64 %48
  %50 = load i8, i8* %49, align 1
  %51 = sext i8 %50 to i32
  %52 = load i32, i32* %4, align 4
  %53 = sub nsw i32 %52, 1
  %54 = sext i32 %53 to i64
  %55 = getelementptr inbounds [101 x i8], [101 x i8]* %10, i64 0, i64 %54
  %56 = load i8, i8* %55, align 1
  %57 = sext i8 %56 to i32
  %58 = sub nsw i32 %51, %57
  store i32 %58, i32* %1, align 4
  %59 = load i32, i32* %1, align 4
  %60 = add nsw i32 %59, 48
  %61 = trunc i32 %60 to i8
  %62 = load i32, i32* %3, align 4
  %63 = sub nsw i32 %62, 1
  %64 = sext i32 %63 to i64
  %65 = getelementptr inbounds [101 x i8], [101 x i8]* %9, i64 0, i64 %64
  store i8 %61, i8* %65, align 1
  br label %115

66:                                               ; preds = %31
  %67 = load i32, i32* %3, align 4
  %68 = sub nsw i32 %67, 2
  store i32 %68, i32* %6, align 4
  br label %69

69:                                               ; preds = %80, %66
  %70 = load i32, i32* %6, align 4
  %71 = sext i32 %70 to i64
  %72 = getelementptr inbounds [101 x i8], [101 x i8]* %9, i64 0, i64 %71
  %73 = load i8, i8* %72, align 1
  %74 = sext i8 %73 to i32
  %75 = icmp eq i32 %74, 48
  br i1 %75, label %76, label %83

76:                                               ; preds = %69
  %77 = load i32, i32* %6, align 4
  %78 = sext i32 %77 to i64
  %79 = getelementptr inbounds [101 x i8], [101 x i8]* %9, i64 0, i64 %78
  store i8 57, i8* %79, align 1
  br label %80

80:                                               ; preds = %76
  %81 = load i32, i32* %6, align 4
  %82 = add nsw i32 %81, -1
  store i32 %82, i32* %6, align 4
  br label %69

83:                                               ; preds = %69
  %84 = load i32, i32* %6, align 4
  %85 = sext i32 %84 to i64
  %86 = getelementptr inbounds [101 x i8], [101 x i8]* %9, i64 0, i64 %85
  %87 = load i8, i8* %86, align 1
  %88 = sext i8 %87 to i32
  %89 = sub nsw i32 %88, 1
  %90 = trunc i32 %89 to i8
  %91 = load i32, i32* %6, align 4
  %92 = sext i32 %91 to i64
  %93 = getelementptr inbounds [101 x i8], [101 x i8]* %9, i64 0, i64 %92
  store i8 %90, i8* %93, align 1
  %94 = load i32, i32* %3, align 4
  %95 = sub nsw i32 %94, 1
  %96 = sext i32 %95 to i64
  %97 = getelementptr inbounds [101 x i8], [101 x i8]* %9, i64 0, i64 %96
  %98 = load i8, i8* %97, align 1
  %99 = sext i8 %98 to i32
  %100 = load i32, i32* %4, align 4
  %101 = sub nsw i32 %100, 1
  %102 = sext i32 %101 to i64
  %103 = getelementptr inbounds [101 x i8], [101 x i8]* %10, i64 0, i64 %102
  %104 = load i8, i8* %103, align 1
  %105 = sext i8 %104 to i32
  %106 = sub nsw i32 %99, %105
  %107 = add nsw i32 10, %106
  store i32 %107, i32* %1, align 4
  %108 = load i32, i32* %1, align 4
  %109 = add nsw i32 %108, 48
  %110 = trunc i32 %109 to i8
  %111 = load i32, i32* %3, align 4
  %112 = sub nsw i32 %111, 1
  %113 = sext i32 %112 to i64
  %114 = getelementptr inbounds [101 x i8], [101 x i8]* %9, i64 0, i64 %113
  store i8 %110, i8* %114, align 1
  br label %115

115:                                              ; preds = %83, %45
  %116 = load i32, i32* %3, align 4
  %117 = sub nsw i32 %116, 1
  store i32 %117, i32* %3, align 4
  br label %118

118:                                              ; preds = %115
  %119 = load i32, i32* %4, align 4
  %120 = add nsw i32 %119, -1
  store i32 %120, i32* %4, align 4
  br label %28

121:                                              ; preds = %28
  store i32 0, i32* %6, align 4
  br label %122

122:                                              ; preds = %143, %121
  %123 = load i32, i32* %6, align 4
  %124 = load i32, i32* %7, align 4
  %125 = icmp slt i32 %123, %124
  br i1 %125, label %126, label %146

126:                                              ; preds = %122
  %127 = load i32, i32* %6, align 4
  %128 = sext i32 %127 to i64
  %129 = getelementptr inbounds [101 x i8], [101 x i8]* %9, i64 0, i64 %128
  %130 = load i8, i8* %129, align 1
  %131 = sext i8 %130 to i32
  %132 = icmp ne i32 %131, 0
  br i1 %132, label %133, label %142

133:                                              ; preds = %126
  %134 = load i32, i32* %6, align 4
  %135 = sext i32 %134 to i64
  %136 = getelementptr inbounds [101 x i8], [101 x i8]* %9, i64 0, i64 %135
  %137 = load i8, i8* %136, align 1
  %138 = load i32, i32* %2, align 4
  %139 = sext i32 %138 to i64
  %140 = getelementptr inbounds [101 x [101 x i8]], [101 x [101 x i8]]* %11, i64 0, i64 %139
  %141 = getelementptr inbounds [101 x i8], [101 x i8]* %140, i64 0, i64 0
  store i8 %137, i8* %141, align 1
  br label %146

142:                                              ; preds = %126
  br label %143

143:                                              ; preds = %142
  %144 = load i32, i32* %6, align 4
  %145 = add nsw i32 %144, 1
  store i32 %145, i32* %6, align 4
  br label %122

146:                                              ; preds = %133, %122
  %147 = load i32, i32* %6, align 4
  %148 = add nsw i32 %147, 1
  store i32 %148, i32* %6, align 4
  store i32 1, i32* %8, align 4
  br label %149

149:                                              ; preds = %166, %146
  %150 = load i32, i32* %6, align 4
  %151 = load i32, i32* %7, align 4
  %152 = icmp slt i32 %150, %151
  br i1 %152, label %153, label %169

153:                                              ; preds = %149
  %154 = load i32, i32* %6, align 4
  %155 = sext i32 %154 to i64
  %156 = getelementptr inbounds [101 x i8], [101 x i8]* %9, i64 0, i64 %155
  %157 = load i8, i8* %156, align 1
  %158 = load i32, i32* %2, align 4
  %159 = sext i32 %158 to i64
  %160 = getelementptr inbounds [101 x [101 x i8]], [101 x [101 x i8]]* %11, i64 0, i64 %159
  %161 = load i32, i32* %8, align 4
  %162 = sext i32 %161 to i64
  %163 = getelementptr inbounds [101 x i8], [101 x i8]* %160, i64 0, i64 %162
  store i8 %157, i8* %163, align 1
  %164 = load i32, i32* %8, align 4
  %165 = add nsw i32 %164, 1
  store i32 %165, i32* %8, align 4
  br label %166

166:                                              ; preds = %153
  %167 = load i32, i32* %6, align 4
  %168 = add nsw i32 %167, 1
  store i32 %168, i32* %6, align 4
  br label %149

169:                                              ; preds = %149
  %170 = load i32, i32* %2, align 4
  %171 = sext i32 %170 to i64
  %172 = getelementptr inbounds [101 x [101 x i8]], [101 x [101 x i8]]* %11, i64 0, i64 %171
  %173 = load i32, i32* %8, align 4
  %174 = sext i32 %173 to i64
  %175 = getelementptr inbounds [101 x i8], [101 x i8]* %172, i64 0, i64 %174
  store i8 0, i8* %175, align 1
  br label %176

176:                                              ; preds = %169
  %177 = load i32, i32* %2, align 4
  %178 = add nsw i32 %177, 1
  store i32 %178, i32* %2, align 4
  br label %13

179:                                              ; preds = %13
  store i32 0, i32* %2, align 4
  br label %180

180:                                              ; preds = %190, %179
  %181 = load i32, i32* %2, align 4
  %182 = load i32, i32* %5, align 4
  %183 = icmp slt i32 %181, %182
  br i1 %183, label %184, label %193

184:                                              ; preds = %180
  %185 = load i32, i32* %2, align 4
  %186 = sext i32 %185 to i64
  %187 = getelementptr inbounds [101 x [101 x i8]], [101 x [101 x i8]]* %11, i64 0, i64 %186
  %188 = getelementptr inbounds [101 x i8], [101 x i8]* %187, i64 0, i64 0
  %189 = call i32 (i8*, ...) @printf(i8* getelementptr inbounds ([4 x i8], [4 x i8]* @.str.2, i64 0, i64 0), i8* %188)
  br label %190

190:                                              ; preds = %184
  %191 = load i32, i32* %2, align 4
  %192 = add nsw i32 %191, 1
  store i32 %192, i32* %2, align 4
  br label %180

193:                                              ; preds = %180
  ret void
}

declare dso_local i32 @__isoc99_scanf(i8*, ...) #1

; Function Attrs: nounwind readonly
declare dso_local i64 @strlen(i8*) #2

declare dso_local i32 @printf(i8*, ...) #1


!llvm.module.flags = !{!0}
!llvm.ident = !{!1}

!0 = !{i32 1, !"wchar_size", i32 4}
!1 = !{!"clang version 10.0.0-4ubuntu1 "}
